; Function Attrs: mustprogress nofree norecurse nosync nounwind willreturn memory(read, argmem: readwrite, inaccessiblemem: none) uwtable
define internal fastcc range(i32 0, 3) i32 @amvr_precision_idx(ptr captures(none) %.4580560.val, i32 noundef range(i32 0, 3) %0, i32 noundef range(i32 1, 3) %1) unnamed_addr #5 {
  %3 = getelementptr inbounds nuw i8, ptr %.4580560.val, i64 2672
  %4 = getelementptr inbounds nuw i8, ptr %.4580560.val, i64 400
  %5 = zext nneg i32 %0 to i64
  %6 = getelementptr inbounds nuw %struct.VVCCabacState, ptr %4, i64 %5
  %7 = getelementptr inbounds nuw i8, ptr %6, i64 546
  %8 = getelementptr inbounds nuw i8, ptr %.4580560.val, i64 2676
  %9 = load i32, ptr %8, align 4, !tbaa !100
  %10 = ashr i32 %9, 5
  %11 = getelementptr inbounds nuw i8, ptr %6, i64 548
  %12 = load i16, ptr %11, align 2, !tbaa !58
  %13 = zext i16 %12 to i32
  %14 = load i16, ptr %7, align 2, !tbaa !58
  %15 = zext i16 %14 to i32
  %16 = shl nuw nsw i32 %15, 4
  %17 = add nuw nsw i32 %16, %13
  %.not.i = icmp samesign ult i32 %17, 16384
  %18 = sub nsw i32 32767, %17
  %19 = select i1 %.not.i, i32 %17, i32 %18
  %20 = ashr i32 %19, 9
  %21 = mul nsw i32 %20, %10
  %22 = ashr i32 %21, 1
  %23 = add nsw i32 %22, 4
  %24 = sub nsw i32 %9, %23
  %25 = shl i32 %24, 17
  %26 = load i32, ptr %3, align 8, !tbaa !70
  %27 = icmp slt i32 %25, %26
  %28 = select i1 %27, i32 %25, i32 0
  %29 = sub nsw i32 %26, %28
  %30 = select i1 %27, i32 %23, i32 %24
  %31 = sext i32 %30 to i64
  %32 = getelementptr inbounds i8, ptr @ff_h264_cabac_tables, i64 %31
  %33 = load i8, ptr %32, align 1, !tbaa !97
  %34 = zext i8 %33 to i32
  %35 = shl i32 %30, %34
  store i32 %35, ptr %8, align 4, !tbaa !100
  %36 = shl i32 %29, %34
  store i32 %36, ptr %3, align 8, !tbaa !70
  %37 = and i32 %36, 65535
  %.not42.i = icmp eq i32 %37, 0
  br i1 %.not42.i, label %38, label %vvc_get_cabac.exit

38:                                               ; preds = %2
  %39 = add nsw i32 %36, -1
  %40 = xor i32 %39, %36
  %41 = lshr i32 %40, 15
  %42 = zext nneg i32 %41 to i64
  %43 = getelementptr inbounds nuw i8, ptr @ff_h264_cabac_tables, i64 %42
  %44 = load i8, ptr %43, align 1, !tbaa !97
  %45 = zext i8 %44 to i32
  %46 = sub nsw i32 7, %45
  %47 = getelementptr inbounds nuw i8, ptr %.4580560.val, i64 2688
  %48 = load ptr, ptr %47, align 8, !tbaa !68
  %49 = load i8, ptr %48, align 1, !tbaa !97
  %50 = zext i8 %49 to i32
  %51 = shl nuw nsw i32 %50, 9
  %52 = getelementptr inbounds nuw i8, ptr %48, i64 1
  %53 = load i8, ptr %52, align 1, !tbaa !97
  %54 = zext i8 %53 to i32
  %55 = shl nuw nsw i32 %54, 1
  %56 = or disjoint i32 %55, %51
  %57 = add nsw i32 %56, -65535
  %58 = shl nsw i32 %57, %46
  %59 = add i32 %58, %36
  store i32 %59, ptr %3, align 8, !tbaa !70
  %60 = getelementptr inbounds nuw i8, ptr %.4580560.val, i64 2696
  %61 = load ptr, ptr %60, align 8, !tbaa !71
  %62 = icmp ult ptr %48, %61
  br i1 %62, label %63, label %vvc_get_cabac.exit

63:                                               ; preds = %38
  %64 = getelementptr inbounds nuw i8, ptr %48, i64 2
  store ptr %64, ptr %47, align 8, !tbaa !68
  br label %vvc_get_cabac.exit

vvc_get_cabac.exit:                               ; preds = %2, %38, %63
  %65 = phi i32 [ %36, %2 ], [ %59, %38 ], [ %59, %63 ]
  %66 = lshr i32 %17, 14
  %67 = zext i1 %27 to i32
  %68 = xor i32 %66, %67
  %69 = getelementptr inbounds nuw i8, ptr %6, i64 550
  %70 = load i8, ptr %69, align 2, !tbaa !97
  %71 = zext i8 %70 to i32
  %72 = lshr i32 %15, %71
  %73 = sub nsw i32 %15, %72
  %74 = mul nuw nsw i32 %68, 1023
  %75 = lshr i32 %74, %71
  %76 = add nsw i32 %73, %75
  %77 = trunc i32 %76 to i16
  store i16 %77, ptr %7, align 2, !tbaa !58
  %78 = getelementptr inbounds nuw i8, ptr %6, i64 551
  %79 = load i8, ptr %78, align 1, !tbaa !97
  %80 = zext i8 %79 to i32
  %81 = lshr i32 %13, %80
  %82 = sub nsw i32 %13, %81
  %83 = mul nuw nsw i32 %68, 16383
  %84 = lshr i32 %83, %80
  %85 = add nsw i32 %82, %84
  %86 = trunc i32 %85 to i16
  store i16 %86, ptr %11, align 2, !tbaa !58
  %.not = icmp eq i32 %66, %67
  br i1 %.not, label %166, label %87

87:                                               ; preds = %vvc_get_cabac.exit
  %88 = icmp samesign ugt i32 %1, 1
  br i1 %88, label %89, label %166

89:                                               ; preds = %87
  %90 = getelementptr inbounds nuw i8, ptr %.4580560.val, i64 952
  %91 = ashr i32 %35, 5
  %92 = getelementptr inbounds nuw i8, ptr %.4580560.val, i64 954
  %93 = load i16, ptr %92, align 2, !tbaa !58
  %94 = zext i16 %93 to i32
  %95 = load i16, ptr %90, align 2, !tbaa !58
  %96 = zext i16 %95 to i32
  %97 = shl nuw nsw i32 %96, 4
  %98 = add nuw nsw i32 %97, %94
  %.not.i12 = icmp samesign ult i32 %98, 16384
  %99 = sub nsw i32 32767, %98
  %100 = select i1 %.not.i12, i32 %98, i32 %99
  %101 = ashr i32 %100, 9
  %102 = mul nsw i32 %101, %91
  %103 = ashr i32 %102, 1
  %104 = add nsw i32 %103, 4
  %105 = sub nsw i32 %35, %104
  %106 = shl i32 %105, 17
  %107 = icmp slt i32 %106, %65
  %108 = select i1 %107, i32 %106, i32 0
  %109 = sub nsw i32 %65, %108
  %110 = select i1 %107, i32 %104, i32 %105
  %111 = sext i32 %110 to i64
  %112 = getelementptr inbounds i8, ptr @ff_h264_cabac_tables, i64 %111
  %113 = load i8, ptr %112, align 1, !tbaa !97
  %114 = zext i8 %113 to i32
  %115 = shl i32 %110, %114
  store i32 %115, ptr %8, align 4, !tbaa !100
  %116 = shl i32 %109, %114
  store i32 %116, ptr %3, align 8, !tbaa !70
  %117 = and i32 %116, 65535
  %.not42.i13 = icmp eq i32 %117, 0
  br i1 %.not42.i13, label %118, label %vvc_get_cabac.exit14

118:                                              ; preds = %89
  %119 = add nsw i32 %116, -1
  %120 = xor i32 %119, %116
  %121 = lshr i32 %120, 15
  %122 = zext nneg i32 %121 to i64
  %123 = getelementptr inbounds nuw i8, ptr @ff_h264_cabac_tables, i64 %122
  %124 = load i8, ptr %123, align 1, !tbaa !97
  %125 = zext i8 %124 to i32
  %126 = sub nsw i32 7, %125
  %127 = getelementptr inbounds nuw i8, ptr %.4580560.val, i64 2688
  %128 = load ptr, ptr %127, align 8, !tbaa !68
  %129 = load i8, ptr %128, align 1, !tbaa !97
  %130 = zext i8 %129 to i32
  %131 = shl nuw nsw i32 %130, 9
  %132 = getelementptr inbounds nuw i8, ptr %128, i64 1
  %133 = load i8, ptr %132, align 1, !tbaa !97
  %134 = zext i8 %133 to i32
  %135 = shl nuw nsw i32 %134, 1
  %136 = or disjoint i32 %135, %131
  %137 = add nsw i32 %136, -65535
  %138 = shl nsw i32 %137, %126
  %139 = add i32 %138, %116
  store i32 %139, ptr %3, align 8, !tbaa !70
  %140 = getelementptr inbounds nuw i8, ptr %.4580560.val, i64 2696
  %141 = load ptr, ptr %140, align 8, !tbaa !71
  %142 = icmp ult ptr %128, %141
  br i1 %142, label %143, label %vvc_get_cabac.exit14

143:                                              ; preds = %118
  %144 = getelementptr inbounds nuw i8, ptr %128, i64 2
  store ptr %144, ptr %127, align 8, !tbaa !68
  br label %vvc_get_cabac.exit14

vvc_get_cabac.exit14:                             ; preds = %89, %118, %143
  %145 = lshr i32 %98, 14
  %146 = zext i1 %107 to i32
  %147 = xor i32 %145, %146
  %148 = getelementptr inbounds nuw i8, ptr %.4580560.val, i64 956
  %149 = load i8, ptr %148, align 2, !tbaa !97
  %150 = zext i8 %149 to i32
  %151 = lshr i32 %96, %150
  %152 = sub nsw i32 %96, %151
  %153 = mul nuw nsw i32 %147, 1023
  %154 = lshr i32 %153, %150
  %155 = add nsw i32 %152, %154
  %156 = trunc i32 %155 to i16
  store i16 %156, ptr %90, align 2, !tbaa !58
  %157 = getelementptr inbounds nuw i8, ptr %.4580560.val, i64 957
  %158 = load i8, ptr %157, align 1, !tbaa !97
  %159 = zext i8 %158 to i32
  %160 = lshr i32 %94, %159
  %161 = sub nsw i32 %94, %160
  %162 = mul nuw nsw i32 %147, 16383
  %163 = lshr i32 %162, %159
  %164 = add nsw i32 %161, %163
  %165 = trunc i32 %164 to i16
  store i16 %165, ptr %92, align 2, !tbaa !58
  %.not11 = icmp eq i32 %145, %146
  %spec.select = select i1 %.not11, i32 1, i32 2
  br label %166

166:                                              ; preds = %vvc_get_cabac.exit14, %87, %vvc_get_cabac.exit
  %.010 = phi i32 [ 0, %vvc_get_cabac.exit ], [ 1, %87 ], [ %spec.select, %vvc_get_cabac.exit14 ]
  ret i32 %.010
}